; Function Attrs: nounwind uwtable
define ptr @l_Lean_Meta_forEachExpr_x27___rarg(ptr noundef %0, ptr noundef %1, ptr noundef %2, ptr noundef %3, ptr noundef %4) #0 {
  %6 = ptrtoint ptr %1 to i64
  %7 = and i64 %6, 1
  %.not = icmp eq i64 %7, 0
  br i1 %.not, label %8, label %lean_inc.exit42

8:                                                ; preds = %5
  %.val.i = load i32, ptr %1, align 4, !tbaa !4
  %9 = icmp sgt i32 %.val.i, 0
  br i1 %9, label %10, label %12, !prof !13

10:                                               ; preds = %8
  %11 = add nuw i32 %.val.i, 1
  store i32 %11, ptr %1, align 4, !tbaa !4
  br label %lean_inc.exit42

12:                                               ; preds = %8
  %.not.i = icmp eq i32 %.val.i, 0
  br i1 %.not.i, label %lean_inc.exit42, label %13

13:                                               ; preds = %12
  tail call void @lean_inc_ref_cold(ptr noundef nonnull %1) #4
  br label %lean_inc.exit42

lean_inc.exit42:                                  ; preds = %13, %12, %10, %5
  tail call void @lean_inc_heartbeat() #4
  %14 = tail call noalias ptr @mi_malloc_small(i64 noundef 32) #4
  %15 = icmp eq ptr %14, null
  br i1 %15, label %16, label %lean_alloc_closure.exit

16:                                               ; preds = %lean_inc.exit42
  tail call void @lean_internal_panic_out_of_memory() #5
  unreachable

lean_alloc_closure.exit:                          ; preds = %lean_inc.exit42
  %17 = getelementptr inbounds nuw i8, ptr %14, i64 4
  store i32 1, ptr %14, align 4, !tbaa !4
  store i32 -184549344, ptr %17, align 4
  %18 = getelementptr inbounds nuw i8, ptr %14, i64 8
  store ptr @l_Lean_Meta_forEachExpr_x27___rarg___lambda__2, ptr %18, align 8, !tbaa !9
  %19 = getelementptr inbounds nuw i8, ptr %14, i64 16
  store i16 3, ptr %19, align 8, !tbaa !11
  %20 = getelementptr inbounds nuw i8, ptr %14, i64 18
  store i16 1, ptr %20, align 2, !tbaa !11
  %21 = getelementptr inbounds nuw i8, ptr %14, i64 24
  store ptr %1, ptr %21, align 8, !tbaa !9
  %22 = getelementptr inbounds nuw i8, ptr %0, i64 16
  %23 = load ptr, ptr %22, align 8, !tbaa !9
  %24 = ptrtoint ptr %23 to i64
  %25 = and i64 %24, 1
  %.not61 = icmp eq i64 %25, 0
  br i1 %.not61, label %26, label %lean_inc.exit41

26:                                               ; preds = %lean_alloc_closure.exit
  %.val.i43 = load i32, ptr %23, align 4, !tbaa !4
  %27 = icmp sgt i32 %.val.i43, 0
  br i1 %27, label %28, label %30, !prof !13

28:                                               ; preds = %26
  %29 = add nuw i32 %.val.i43, 1
  store i32 %29, ptr %23, align 4, !tbaa !4
  br label %lean_inc.exit41

30:                                               ; preds = %26
  %.not.i44 = icmp eq i32 %.val.i43, 0
  br i1 %.not.i44, label %lean_inc.exit41, label %31

31:                                               ; preds = %30
  tail call void @lean_inc_ref_cold(ptr noundef nonnull %23) #4
  br label %lean_inc.exit41

lean_inc.exit41:                                  ; preds = %31, %30, %28, %lean_alloc_closure.exit
  %32 = load ptr, ptr @l_Lean_Meta_forEachExpr_x27___rarg___closed__3, align 8, !tbaa !9
  tail call void @lean_inc_heartbeat() #4
  %33 = tail call noalias ptr @mi_malloc_small(i64 noundef 32) #4
  %34 = icmp eq ptr %33, null
  br i1 %34, label %35, label %lean_alloc_closure.exit46

35:                                               ; preds = %lean_inc.exit41
  tail call void @lean_internal_panic_out_of_memory() #5
  unreachable

lean_alloc_closure.exit46:                        ; preds = %lean_inc.exit41
  %36 = getelementptr inbounds nuw i8, ptr %33, i64 4
  store i32 1, ptr %33, align 4, !tbaa !4
  store i32 -184549344, ptr %36, align 4
  %37 = getelementptr inbounds nuw i8, ptr %33, i64 8
  store ptr @l_Lean_Meta_forEachExpr_x27___rarg___lambda__3___boxed, ptr %37, align 8, !tbaa !9
  %38 = getelementptr inbounds nuw i8, ptr %33, i64 16
  store i16 6, ptr %38, align 8, !tbaa !11
  %39 = getelementptr inbounds nuw i8, ptr %33, i64 18
  store i16 1, ptr %39, align 2, !tbaa !11
  %40 = getelementptr inbounds nuw i8, ptr %33, i64 24
  store ptr %32, ptr %40, align 8, !tbaa !9
  br i1 %.not, label %41, label %lean_inc.exit40

41:                                               ; preds = %lean_alloc_closure.exit46
  %.val.i47 = load i32, ptr %1, align 4, !tbaa !4
  %42 = icmp sgt i32 %.val.i47, 0
  br i1 %42, label %43, label %45, !prof !13

43:                                               ; preds = %41
  %44 = add nuw i32 %.val.i47, 1
  store i32 %44, ptr %1, align 4, !tbaa !4
  br label %lean_inc.exit40

45:                                               ; preds = %41
  %.not.i48 = icmp eq i32 %.val.i47, 0
  br i1 %.not.i48, label %lean_inc.exit40, label %46

46:                                               ; preds = %45
  tail call void @lean_inc_ref_cold(ptr noundef nonnull %1) #4
  br label %lean_inc.exit40

lean_inc.exit40:                                  ; preds = %46, %45, %43, %lean_alloc_closure.exit46
  %47 = tail call ptr @lean_apply_2(ptr noundef %1, ptr noundef nonnull inttoptr (i64 1 to ptr), ptr noundef nonnull %33) #4
  br i1 %.not61, label %48, label %lean_inc.exit39

48:                                               ; preds = %lean_inc.exit40
  %.val.i50 = load i32, ptr %23, align 4, !tbaa !4
  %49 = icmp sgt i32 %.val.i50, 0
  br i1 %49, label %50, label %52, !prof !13

50:                                               ; preds = %48
  %51 = add nuw i32 %.val.i50, 1
  store i32 %51, ptr %23, align 4, !tbaa !4
  br label %lean_inc.exit39

52:                                               ; preds = %48
  %.not.i51 = icmp eq i32 %.val.i50, 0
  br i1 %.not.i51, label %lean_inc.exit39, label %53

53:                                               ; preds = %52
  tail call void @lean_inc_ref_cold(ptr noundef nonnull %23) #4
  br label %lean_inc.exit39

lean_inc.exit39:                                  ; preds = %53, %52, %50, %lean_inc.exit40
  %54 = ptrtoint ptr %0 to i64
  %55 = and i64 %54, 1
  %.not62 = icmp eq i64 %55, 0
  br i1 %.not62, label %56, label %lean_inc.exit38

56:                                               ; preds = %lean_inc.exit39
  %.val.i53 = load i32, ptr %0, align 4, !tbaa !4
  %57 = icmp sgt i32 %.val.i53, 0
  br i1 %57, label %58, label %60, !prof !13

58:                                               ; preds = %56
  %59 = add nuw i32 %.val.i53, 1
  store i32 %59, ptr %0, align 4, !tbaa !4
  br label %lean_inc.exit38

60:                                               ; preds = %56
  %.not.i54 = icmp eq i32 %.val.i53, 0
  br i1 %.not.i54, label %lean_inc.exit38, label %61

61:                                               ; preds = %60
  tail call void @lean_inc_ref_cold(ptr noundef nonnull %0) #4
  br label %lean_inc.exit38

lean_inc.exit38:                                  ; preds = %61, %60, %58, %lean_inc.exit39
  tail call void @lean_inc_heartbeat() #4
  %62 = tail call noalias ptr @mi_malloc_small(i64 noundef 88) #4
  %63 = icmp eq ptr %62, null
  br i1 %63, label %64, label %lean_alloc_closure.exit56

64:                                               ; preds = %lean_inc.exit38
  tail call void @lean_internal_panic_out_of_memory() #5
  unreachable

lean_alloc_closure.exit56:                        ; preds = %lean_inc.exit38
  %65 = getelementptr inbounds nuw i8, ptr %62, i64 4
  store i32 1, ptr %62, align 4, !tbaa !4
  store i32 -184549288, ptr %65, align 4
  %66 = getelementptr inbounds nuw i8, ptr %62, i64 8
  store ptr @l_Lean_Meta_forEachExpr_x27___rarg___lambda__7, ptr %66, align 8, !tbaa !9
  %67 = getelementptr inbounds nuw i8, ptr %62, i64 16
  store i16 9, ptr %67, align 8, !tbaa !11
  %68 = getelementptr inbounds nuw i8, ptr %62, i64 18
  store i16 8, ptr %68, align 2, !tbaa !11
  %69 = getelementptr inbounds nuw i8, ptr %62, i64 24
  store ptr %0, ptr %69, align 8, !tbaa !9
  %70 = getelementptr inbounds nuw i8, ptr %62, i64 32
  store ptr %2, ptr %70, align 8, !tbaa !9
  %71 = getelementptr inbounds nuw i8, ptr %62, i64 40
  store ptr %4, ptr %71, align 8, !tbaa !9
  %72 = getelementptr inbounds nuw i8, ptr %62, i64 48
  store ptr inttoptr (i64 1 to ptr), ptr %72, align 8, !tbaa !9
  %73 = getelementptr inbounds nuw i8, ptr %62, i64 56
  store ptr %14, ptr %73, align 8, !tbaa !9
  %74 = getelementptr inbounds nuw i8, ptr %62, i64 64
  store ptr %3, ptr %74, align 8, !tbaa !9
  %75 = getelementptr inbounds nuw i8, ptr %62, i64 72
  store ptr %1, ptr %75, align 8, !tbaa !9
  %76 = getelementptr inbounds nuw i8, ptr %62, i64 80
  store ptr %23, ptr %76, align 8, !tbaa !9
  br i1 %.not61, label %77, label %lean_inc.exit

77:                                               ; preds = %lean_alloc_closure.exit56
  %.val.i57 = load i32, ptr %23, align 4, !tbaa !4
  %78 = icmp sgt i32 %.val.i57, 0
  br i1 %78, label %79, label %81, !prof !13

79:                                               ; preds = %77
  %80 = add nuw i32 %.val.i57, 1
  store i32 %80, ptr %23, align 4, !tbaa !4
  br label %lean_inc.exit

81:                                               ; preds = %77
  %.not.i58 = icmp eq i32 %.val.i57, 0
  br i1 %.not.i58, label %lean_inc.exit, label %82

82:                                               ; preds = %81
  tail call void @lean_inc_ref_cold(ptr noundef nonnull %23) #4
  br label %lean_inc.exit

lean_inc.exit:                                    ; preds = %82, %81, %79, %lean_alloc_closure.exit56
  %83 = tail call ptr @lean_apply_4(ptr noundef %23, ptr noundef nonnull inttoptr (i64 1 to ptr), ptr noundef nonnull inttoptr (i64 1 to ptr), ptr noundef %47, ptr noundef nonnull %62) #4
  tail call void @lean_inc_heartbeat() #4
  %84 = tail call noalias ptr @mi_malloc_small(i64 noundef 32) #4
  %85 = icmp eq ptr %84, null
  br i1 %85, label %86, label %lean_alloc_closure.exit60

86:                                               ; preds = %lean_inc.exit
  tail call void @lean_internal_panic_out_of_memory() #5
  unreachable

lean_alloc_closure.exit60:                        ; preds = %lean_inc.exit
  %87 = getelementptr inbounds nuw i8, ptr %84, i64 4
  store i32 1, ptr %84, align 4, !tbaa !4
  store i32 -184549344, ptr %87, align 4
  %88 = getelementptr inbounds nuw i8, ptr %84, i64 8
  store ptr @l_Lean_Meta_forEachExpr_x27___rarg___lambda__8, ptr %88, align 8, !tbaa !9
  %89 = getelementptr inbounds nuw i8, ptr %84, i64 16
  store i16 2, ptr %89, align 8, !tbaa !11
  %90 = getelementptr inbounds nuw i8, ptr %84, i64 18
  store i16 1, ptr %90, align 2, !tbaa !11
  %91 = getelementptr inbounds nuw i8, ptr %84, i64 24
  store ptr %0, ptr %91, align 8, !tbaa !9
  %92 = tail call ptr @lean_apply_4(ptr noundef %23, ptr noundef nonnull inttoptr (i64 1 to ptr), ptr noundef nonnull inttoptr (i64 1 to ptr), ptr noundef %83, ptr noundef nonnull %84) #4
  ret ptr %92
}